Certificate:
    Data:
        Version: 3 (0x2)
        Serial Number:
            9e:3b:07:4c:4f:9f:a7:3c:ef:26:89:a3:c8:17:e5:32
        Signature Algorithm: sha256WithRSAEncryption
        Issuer: CN=Easy-RSA CA
        Validity
            Not Before: Apr 29 15:00:40 2019 GMT
            Not After : Apr 13 15:00:40 2022 GMT
        Subject: CN=client
        Subject Public Key Info:
            Public Key Algorithm: rsaEncryption
                RSA Public-Key: (2048 bit)
                Modulus:
                    00:aa:b1:c1:7c:cf:4f:ce:3a:95:3d:13:0c:6a:a0:
                    04:92:37:c3:e5:2d:46:4f:3c:59:e2:5c:1b:f8:a3:
                    11:03:7d:ec:c3:39:7d:03:a7:5b:d0:5c:48:18:1e:
                    05:1d:d9:e3:ea:fe:d3:a1:9a:7b:24:31:55:e8:54:
                    62:99:4e:46:a3:29:a4:48:d3:ae:2e:46:af:0c:d7:
                    93:37:93:b6:cd:04:3a:38:d6:ff:d6:b9:11:c2:94:
                    16:28:82:cc:08:97:a9:08:21:f4:6d:02:87:a6:50:
                    db:5a:2e:92:d7:be:22:ad:ef:8c:dd:ba:af:74:f2:
                    17:18:e3:92:ec:91:74:dc:e4:0a:e4:6b:fc:30:89:
                    56:38:a3:9b:f8:48:28:5a:dd:29:68:39:5b:91:82:
                    9f:f5:9c:a5:d2:d0:59:68:6a:89:4b:5c:37:97:13:
                    7b:8a:a8:ed:3e:f7:84:3f:6b:e3:37:62:d1:c8:20:
                    10:a1:c5:89:df:7f:c1:0d:68:e9:9f:28:93:30:52:
                    d2:48:18:6e:c1:16:86:2c:2f:80:52:df:62:f2:1b:
                    e7:13:71:9b:41:f7:4d:4f:ee:5b:00:a2:48:9b:55:
                    23:d9:7a:0b:a2:c5:52:ca:55:9f:3f:68:77:a1:ae:
                    6a:5b:b8:c7:d9:05:e2:45:45:30:6a:ce:37:c7:71:
                    c0:ff
                Exponent: 65537 (0x10001)
        X509v3 extensions:
            X509v3 Basic Constraints: 
                CA:FALSE
            X509v3 Subject Key Identifier: 
                3B:D8:4A:C5:F0:34:3E:AF:49:EF:68:85:28:14:89:16:55:35:78:B1
            X509v3 Authority Key Identifier: 
                keyid:E3:A2:CF:ED:D5:DD:C6:80:F2:5B:8E:EF:BF:90:B7:54:00:80:E5:13
                DirName:/CN=Easy-RSA CA
                serial:37:93:02:D8:1F:57:2F:D1:9D:65:FB:EA:06:66:05:BE:25:53:C3:03

            X509v3 Extended Key Usage: 
                TLS Web Client Authentication
            X509v3 Key Usage: 
                Digital Signature
    Signature Algorithm: sha256WithRSAEncryption
         bb:01:d9:4d:c4:05:a0:19:c0:d8:91:a3:6e:e1:52:cd:91:35:
         5e:82:01:3a:be:b7:1c:a8:7b:fd:2f:03:b2:7f:65:40:a9:36:
         17:e1:e1:7f:30:50:0c:65:47:9d:ba:a8:30:b9:a3:ee:27:df:
         af:7b:f9:dc:70:0b:e8:f8:c6:df:44:aa:4e:92:d9:22:ba:63:
         61:5a:57:2a:4c:6c:dc:8b:b7:08:05:1f:64:3c:85:ac:a4:c1:
         ad:bb:a0:51:7f:95:a7:2d:43:c5:53:e5:77:72:7b:3e:b9:b0:
         0c:f0:6e:58:1a:29:d2:eb:fa:6e:e4:d7:36:7d:0a:61:c5:8e:
         54:d3:98:38:41:ae:0e:1e:d6:d4:d3:32:86:d2:83:70:63:08:
         2e:c8:af:c2:79:bc:41:ed:4b:fc:89:58:cc:a2:26:2b:fe:a7:
         11:db:57:3a:87:74:a0:d1:d1:52:a4:45:d9:2c:a0:12:1b:c8:
         41:55:bb:f6:65:08:b1:1c:59:7d:6c:90:47:9b:15:7d:53:30:
         1f:b7:ae:f8:11:c3:b6:9c:6e:ea:b1:79:3f:68:80:56:8a:4c:
         b0:e1:a1:51:e9:49:a9:ce:a6:3d:ed:1c:f6:7f:ed:5a:13:bd:
         9d:e1:92:f7:5f:59:66:81:ed:a7:e3:af:ea:de:87:83:84:72:
         02:88:19:04
-----BEGIN CERTIFICATE-----
MIIDVTCCAj2gAwIBAgIRAJ47B0xPn6c87yaJo8gX5TIwDQYJKoZIhvcNAQELBQAw
FjEUMBIGA1UEAwwLRWFzeS1SU0EgQ0EwHhcNMTkwNDI5MTUwMDQwWhcNMjIwNDEz
MTUwMDQwWjARMQ8wDQYDVQQDDAZjbGllbnQwggEiMA0GCSqGSIb3DQEBAQUAA4IB
DwAwggEKAoIBAQCqscF8z0/OOpU9EwxqoASSN8PlLUZPPFniXBv4oxEDfezDOX0D
p1vQXEgYHgUd2ePq/tOhmnskMVXoVGKZTkajKaRI064uRq8M15M3k7bNBDo41v/W
uRHClBYogswIl6kIIfRtAoemUNtaLpLXviKt74zduq908hcY45LskXTc5Arka/ww
iVY4o5v4SCha3SloOVuRgp/1nKXS0FloaolLXDeXE3uKqO0+94Q/a+M3YtHIIBCh
xYnff8ENaOmfKJMwUtJIGG7BFoYsL4BS32LyG+cTcZtB901P7lsAokibVSPZegui
xVLKVZ8/aHehrmpbuMfZBeJFRTBqzjfHccD/AgMBAAGjgaIwgZ8wCQYDVR0TBAIw
ADAdBgNVHQ4EFgQUO9hKxfA0Pq9J72iFKBSJFlU1eLEwUQYDVR0jBEowSIAU46LP
7dXdxoDyW47vv5C3VACA5ROhGqQYMBYxFDASBgNVBAMMC0Vhc3ktUlNBIENBghQ3
kwLYH1cv0Z1l++oGZgW+JVPDAzATBgNVHSUEDDAKBggrBgEFBQcDAjALBgNVHQ8E
BAMCB4AwDQYJKoZIhvcNAQELBQADggEBALsB2U3EBaAZwNiRo27hUs2RNV6CATq+
txyoe/0vA7J/ZUCpNhfh4X8wUAxlR526qDC5o+4n3697+dxwC+j4xt9Eqk6S2SK6
Y2FaVypMbNyLtwgFH2Q8haykwa27oFF/lactQ8VT5Xdyez65sAzwblgaKdLr+m7k
1zZ9CmHFjlTTmDhBrg4e1tTTMobSg3BjCC7Ir8J5vEHtS/yJWMyiJiv+pxHbVzqH
dKDR0VKkRdksoBIbyEFVu/ZlCLEcWX1skEebFX1TMB+3rvgRw7acbuqxeT9ogFaK
TLDhoVHpSanOpj3tHPZ/7VoTvZ3hkvdfWWaB7afjr+reh4OEcgKIGQQ=
-----END CERTIFICATE-----
